; Function Attrs: mustprogress nofree norecurse nosync nounwind willreturn memory(read, argmem: readwrite, inaccessiblemem: none) uwtable
define ptr @Ssw_ClassesReadClass(ptr noundef readonly captures(none) %0, ptr noundef readonly captures(none) %1, ptr noundef writeonly captures(none) %2) local_unnamed_addr #10 {
  %4 = getelementptr inbounds nuw i8, ptr %0, i64 8
  %5 = load ptr, ptr %4, align 8, !tbaa !26
  %6 = getelementptr inbounds nuw i8, ptr %1, i64 36
  %7 = load i32, ptr %6, align 4, !tbaa !42
  %8 = sext i32 %7 to i64
  %9 = getelementptr inbounds ptr, ptr %5, i64 %8
  %10 = load ptr, ptr %9, align 8, !tbaa !43
  %11 = icmp eq ptr %10, null
  br i1 %11, label %21, label %12

12:                                               ; preds = %3
  %13 = getelementptr inbounds nuw i8, ptr %0, i64 16
  %14 = load ptr, ptr %13, align 8, !tbaa !27
  %15 = getelementptr inbounds i32, ptr %14, i64 %8
  %16 = load i32, ptr %15, align 4, !tbaa !44
  store i32 %16, ptr %2, align 4, !tbaa !44
  %17 = load i32, ptr %6, align 4, !tbaa !42
  %18 = sext i32 %17 to i64
  %19 = getelementptr inbounds ptr, ptr %5, i64 %18
  %20 = load ptr, ptr %19, align 8, !tbaa !43
  br label %21

21:                                               ; preds = %3, %12
  %.0 = phi ptr [ %20, %12 ], [ null, %3 ]
  ret ptr %.0
}